(dp0
S'OriginalConfig'
p1
ccopy_reg
_reconstructor
p2
(cWMCore.Configuration
Configuration
p3
c__builtin__
object
p4
Ntp5
Rp6
(dp7
S'Site'
p8
g2
(cWMCore.Configuration
ConfigSection
p9
g4
Ntp10
Rp11
(dp12
S'_internal_skipChecks'
p13
I00
sS'_internal_documentation'
p14
S''
p15
sS'_internal_settings'
p16
c__builtin__
set
p17
((lp18
S'storageSite'
p19
atp20
Rp21
sS'_internal_name'
p22
g8
sS'_internal_docstrings'
p23
(dp24
sS'_internal_children'
p25
g17
((lp26
tp27
Rp28
sg19
S'T3_CH_CERNBOX'
p29
sS'_internal_parent_ref'
p30
NsbsS'Data'
p31
g2
(g9
g4
Ntp32
Rp33
(dp34
S'outputDatasetTag'
p35
S'intrinsickTtune_hw7'
p36
sg13
I00
sS'unitsPerJob'
p37
I5000
sg14
g15
sg16
g17
((lp38
g37
ag35
aS'publication'
p39
aS'splitting'
p40
aS'totalUnits'
p41
atp42
Rp43
sg22
g31
sg40
S'EventBased'
p44
sg23
(dp45
sg25
g17
((lp46
tp47
Rp48
sg39
I00
sg30
Nsg41
I2500000
sbsS'_internal_sections'
p49
(lp50
S'General'
p51
aS'JobType'
p52
ag31
ag8
asg52
g2
(g9
g4
Ntp53
Rp54
(dp55
S'numCores'
p56
I1
sg13
I00
sg14
g15
sg16
g17
((lp57
S'psetName'
p58
aS'pluginName'
p59
ag56
aS'allowUndistributedCMSSW'
p60
atp61
Rp62
sg22
g52
sg23
(dp63
sg59
S'PrivateMC'
p64
sg25
g17
((lp65
tp66
Rp67
sg60
I01
sg58
S'hw7_cfg.py'
p68
sg30
Nsbsg51
g2
(g9
g4
Ntp69
Rp70
(dp71
g13
I00
sg14
g15
sg16
g17
((lp72
S'transferLogs'
p73
aS'requestName'
p74
atp75
Rp76
sg22
g51
sg23
(dp77
sg25
g17
((lp78
tp79
Rp80
sg74
S'hw7'
p81
sg30
Nsg73
I01
sbsbsS'voGroup'
p82
g15
sS'Server'
p83
S'cmsweb.cern.ch'
p84
sS'instance'
p85
S'prod'
p86
sS'RequestName'
p87
V240214_152619:xining_crab_hw7
p88
sS'voRole'
p89
S'NULL'
p90
sS'Port'
p91
g15
s.